target datalayout = "e-m:e-p270:32:32-p271:32:32-p272:64:64-i64:64-i128:128-f80:128-n8:16:32:64-S128"
target triple = "x86_64-unknown-linux-gnu"

%"struct.EA::StdC::SprintfLocal::FormatData" = type { i32, i32, i8, i32, i32, i32, i32, i32, i8, i32 }

; Function Attrs: mustprogress uwtable
define internal noundef i32 @_ZN2EA4StdC12SprintfLocalL17WriteRightPaddingIDsEEiPFiPKT_mPvNS0_18WriteFunctionStateEES6_RKNS1_10FormatDataEi(ptr noundef %pWriteFunction, ptr noalias noundef %pWriteFunctionContext, ptr noundef nonnull align 4 dereferenceable(40) %fd, i32 noundef %nWriteCount) #2 {
entry:
  %retval = alloca i32, align 4
  %pWriteFunction.addr = alloca ptr, align 8
  %pWriteFunctionContext.addr = alloca ptr, align 8
  %fd.addr = alloca ptr, align 8
  %nWriteCount.addr = alloca i32, align 4
  %nSpace = alloca i16, align 2
  %nFillCount = alloca i32, align 4
  %i = alloca i32, align 4
  store ptr %pWriteFunction, ptr %pWriteFunction.addr, align 8
  store ptr %pWriteFunctionContext, ptr %pWriteFunctionContext.addr, align 8
  store ptr %fd, ptr %fd.addr, align 8
  store i32 %nWriteCount, ptr %nWriteCount.addr, align 4
  %0 = load ptr, ptr %fd.addr, align 8
  %mAlignment = getelementptr inbounds %"struct.EA::StdC::SprintfLocal::FormatData", ptr %0, i32 0, i32 0
  %1 = load i32, ptr %mAlignment, align 4
  %cmp = icmp ne i32 %1, 0
  br i1 %cmp, label %if.then, label %lor.lhs.false

lor.lhs.false:                                    ; preds = %entry
  %2 = load ptr, ptr %fd.addr, align 8
  %mnWidth = getelementptr inbounds %"struct.EA::StdC::SprintfLocal::FormatData", ptr %2, i32 0, i32 3
  %3 = load i32, ptr %mnWidth, align 4
  %4 = load i32, ptr %nWriteCount.addr, align 4
  %cmp1 = icmp sle i32 %3, %4
  br i1 %cmp1, label %if.then, label %if.end

if.then:                                          ; preds = %lor.lhs.false, %entry
  store i32 0, ptr %retval, align 4
  br label %return

if.end:                                           ; preds = %lor.lhs.false
  store i16 32, ptr %nSpace, align 2
  %5 = load ptr, ptr %fd.addr, align 8
  %mnWidth2 = getelementptr inbounds %"struct.EA::StdC::SprintfLocal::FormatData", ptr %5, i32 0, i32 3
  %6 = load i32, ptr %mnWidth2, align 4
  %7 = load i32, ptr %nWriteCount.addr, align 4
  %sub = sub nsw i32 %6, %7
  store i32 %sub, ptr %nFillCount, align 4
  store i32 0, ptr %i, align 4
  br label %for.cond

for.cond:                                         ; preds = %for.inc, %if.end
  %8 = load i32, ptr %i, align 4
  %9 = load i32, ptr %nFillCount, align 4
  %cmp3 = icmp slt i32 %8, %9
  br i1 %cmp3, label %for.body, label %for.end

for.body:                                         ; preds = %for.cond
  %10 = load ptr, ptr %pWriteFunction.addr, align 8
  %11 = load ptr, ptr %pWriteFunctionContext.addr, align 8
  %call = call noundef i32 %10(ptr noundef %nSpace, i64 noundef 1, ptr noundef %11, i32 noundef 1)
  %cmp4 = icmp eq i32 %call, -1
  br i1 %cmp4, label %if.then5, label %if.end6

if.then5:                                         ; preds = %for.body
  store i32 -1, ptr %retval, align 4
  br label %return

if.end6:                                          ; preds = %for.body
  br label %for.inc

for.inc:                                          ; preds = %if.end6
  %12 = load i32, ptr %i, align 4
  %inc = add nsw i32 %12, 1
  store i32 %inc, ptr %i, align 4
  br label %for.cond, !llvm.loop !52

for.end:                                          ; preds = %for.cond
  %13 = load i32, ptr %nFillCount, align 4
  store i32 %13, ptr %retval, align 4
  br label %return

return:                                           ; preds = %for.end, %if.then5, %if.then
  %14 = load i32, ptr %retval, align 4
  ret i32 %14
}

; Function Attrs: mustprogress uwtable
define internal noundef i32 @_ZN2EA4StdC12SprintfLocalL16WriteLeftPaddingIDsEEiPFiPKT_mPvNS0_18WriteFunctionStateEES6_RKNS1_10FormatDataERS5_i(ptr noundef %pWriteFunction, ptr noalias noundef %pWriteFunctionContext, ptr noundef nonnull align 4 dereferenceable(40) %fd, ptr noundef nonnull align 8 dereferenceable(8) %pBufferData, i32 noundef %nWriteCount) #2 {
entry:
  %retval = alloca i32, align 4
  %pWriteFunction.addr = alloca ptr, align 8
  %pWriteFunctionContext.addr = alloca ptr, align 8
  %fd.addr = alloca ptr, align 8
  %pBufferData.addr = alloca ptr, align 8
  %nWriteCount.addr = alloca i32, align 4
  %nFill = alloca i16, align 2
  %nFillCount = alloca i32, align 4
  %i = alloca i32, align 4
  store ptr %pWriteFunction, ptr %pWriteFunction.addr, align 8
  store ptr %pWriteFunctionContext, ptr %pWriteFunctionContext.addr, align 8
  store ptr %fd, ptr %fd.addr, align 8
  store ptr %pBufferData, ptr %pBufferData.addr, align 8
  store i32 %nWriteCount, ptr %nWriteCount.addr, align 4
  %0 = load ptr, ptr %fd.addr, align 8
  %mAlignment = getelementptr inbounds %"struct.EA::StdC::SprintfLocal::FormatData", ptr %0, i32 0, i32 0
  %1 = load i32, ptr %mAlignment, align 4
  %cmp = icmp eq i32 %1, 0
  br i1 %cmp, label %if.then, label %lor.lhs.false

lor.lhs.false:                                    ; preds = %entry
  %2 = load ptr, ptr %fd.addr, align 8
  %mnWidth = getelementptr inbounds %"struct.EA::StdC::SprintfLocal::FormatData", ptr %2, i32 0, i32 3
  %3 = load i32, ptr %mnWidth, align 4
  %4 = load i32, ptr %nWriteCount.addr, align 4
  %cmp1 = icmp sle i32 %3, %4
  br i1 %cmp1, label %if.then, label %if.end

if.then:                                          ; preds = %lor.lhs.false, %entry
  store i32 0, ptr %retval, align 4
  br label %return

if.end:                                           ; preds = %lor.lhs.false
  %5 = load ptr, ptr %fd.addr, align 8
  %mAlignment2 = getelementptr inbounds %"struct.EA::StdC::SprintfLocal::FormatData", ptr %5, i32 0, i32 0
  %6 = load i32, ptr %mAlignment2, align 4
  %cmp3 = icmp eq i32 %6, 2
  br i1 %cmp3, label %if.then4, label %if.else

if.then4:                                         ; preds = %if.end
  store i16 48, ptr %nFill, align 2
  %7 = load ptr, ptr %pBufferData.addr, align 8
  %8 = load ptr, ptr %7, align 8
  %tobool = icmp ne ptr %8, null
  br i1 %tobool, label %land.lhs.true, label %if.end16

land.lhs.true:                                    ; preds = %if.then4
  %9 = load ptr, ptr %pBufferData.addr, align 8
  %10 = load ptr, ptr %9, align 8
  %11 = load i16, ptr %10, align 2
  %conv = zext i16 %11 to i32
  %cmp5 = icmp eq i32 %conv, 43
  br i1 %cmp5, label %if.then12, label %lor.lhs.false6

lor.lhs.false6:                                   ; preds = %land.lhs.true
  %12 = load ptr, ptr %pBufferData.addr, align 8
  %13 = load ptr, ptr %12, align 8
  %14 = load i16, ptr %13, align 2
  %conv7 = zext i16 %14 to i32
  %cmp8 = icmp eq i32 %conv7, 45
  br i1 %cmp8, label %if.then12, label %lor.lhs.false9

lor.lhs.false9:                                   ; preds = %lor.lhs.false6
  %15 = load ptr, ptr %pBufferData.addr, align 8
  %16 = load ptr, ptr %15, align 8
  %17 = load i16, ptr %16, align 2
  %conv10 = zext i16 %17 to i32
  %cmp11 = icmp eq i32 %conv10, 32
  br i1 %cmp11, label %if.then12, label %if.end16

if.then12:                                        ; preds = %lor.lhs.false9, %lor.lhs.false6, %land.lhs.true
  %18 = load ptr, ptr %pWriteFunction.addr, align 8
  %19 = load ptr, ptr %pBufferData.addr, align 8
  %20 = load ptr, ptr %19, align 8
  %21 = load ptr, ptr %pWriteFunctionContext.addr, align 8
  %call = call noundef i32 %18(ptr noundef %20, i64 noundef 1, ptr noundef %21, i32 noundef 1)
  %cmp13 = icmp eq i32 %call, -1
  br i1 %cmp13, label %if.then14, label %if.end15

if.then14:                                        ; preds = %if.then12
  store i32 -1, ptr %retval, align 4
  br label %return

if.end15:                                         ; preds = %if.then12
  %22 = load i32, ptr %nWriteCount.addr, align 4
  %dec = add nsw i32 %22, -1
  store i32 %dec, ptr %nWriteCount.addr, align 4
  %23 = load ptr, ptr %pBufferData.addr, align 8
  %24 = load ptr, ptr %23, align 8
  %incdec.ptr = getelementptr inbounds i16, ptr %24, i32 1
  store ptr %incdec.ptr, ptr %23, align 8
  br label %if.end16

if.end16:                                         ; preds = %if.end15, %lor.lhs.false9, %if.then4
  br label %if.end17

if.else:                                          ; preds = %if.end
  store i16 32, ptr %nFill, align 2
  br label %if.end17

if.end17:                                         ; preds = %if.else, %if.end16
  %25 = load ptr, ptr %fd.addr, align 8
  %mnWidth18 = getelementptr inbounds %"struct.EA::StdC::SprintfLocal::FormatData", ptr %25, i32 0, i32 3
  %26 = load i32, ptr %mnWidth18, align 4
  %27 = load i32, ptr %nWriteCount.addr, align 4
  %sub = sub nsw i32 %26, %27
  store i32 %sub, ptr %nFillCount, align 4
  store i32 0, ptr %i, align 4
  br label %for.cond

for.cond:                                         ; preds = %for.inc, %if.end17
  %28 = load i32, ptr %i, align 4
  %29 = load i32, ptr %nFillCount, align 4
  %cmp19 = icmp slt i32 %28, %29
  br i1 %cmp19, label %for.body, label %for.end

for.body:                                         ; preds = %for.cond
  %30 = load ptr, ptr %pWriteFunction.addr, align 8
  %31 = load ptr, ptr %pWriteFunctionContext.addr, align 8
  %call20 = call noundef i32 %30(ptr noundef %nFill, i64 noundef 1, ptr noundef %31, i32 noundef 1)
  %cmp21 = icmp eq i32 %call20, -1
  br i1 %cmp21, label %if.then22, label %if.end23

if.then22:                                        ; preds = %for.body
  store i32 -1, ptr %retval, align 4
  br label %return

if.end23:                                         ; preds = %for.body
  br label %for.inc

for.inc:                                          ; preds = %if.end23
  %32 = load i32, ptr %i, align 4
  %inc = add nsw i32 %32, 1
  store i32 %inc, ptr %i, align 4
  br label %for.cond, !llvm.loop !51

for.end:                                          ; preds = %for.cond
  %33 = load i32, ptr %nFillCount, align 4
  store i32 %33, ptr %retval, align 4
  br label %return

return:                                           ; preds = %for.end, %if.then22, %if.then14, %if.then
  %34 = load i32, ptr %retval, align 4
  ret i32 %34
}

; Function Attrs: mustprogress uwtable
define internal noundef i32 @_ZN2EA4StdC12SprintfLocalL11WriteBufferIDsEEiPFiPKT_mPvNS0_18WriteFunctionStateEES6_RKNS1_10FormatDataES5_i(ptr noundef %pWriteFunction, ptr noalias noundef %pWriteFunctionContext, ptr noundef nonnull align 4 dereferenceable(40) %fd, ptr noundef %pBufferData, i32 noundef %nWriteCount) #2 {
entry:
  %retval = alloca i32, align 4
  %pWriteFunction.addr = alloca ptr, align 8
  %pWriteFunctionContext.addr = alloca ptr, align 8
  %fd.addr = alloca ptr, align 8
  %pBufferData.addr = alloca ptr, align 8
  %nWriteCount.addr = alloca i32, align 4
  %pBufferDataEnd = alloca ptr, align 8
  %nWriteCountCurrent = alloca i32, align 4
  %nFillCount = alloca i32, align 4
  store ptr %pWriteFunction, ptr %pWriteFunction.addr, align 8
  store ptr %pWriteFunctionContext, ptr %pWriteFunctionContext.addr, align 8
  store ptr %fd, ptr %fd.addr, align 8
  store ptr %pBufferData, ptr %pBufferData.addr, align 8
  store i32 %nWriteCount, ptr %nWriteCount.addr, align 4
  %0 = load ptr, ptr %pBufferData.addr, align 8
  %1 = load i32, ptr %nWriteCount.addr, align 4
  %idx.ext = sext i32 %1 to i64
  %add.ptr = getelementptr inbounds i16, ptr %0, i64 %idx.ext
  store ptr %add.ptr, ptr %pBufferDataEnd, align 8
  %2 = load i32, ptr %nWriteCount.addr, align 4
  store i32 %2, ptr %nWriteCountCurrent, align 4
  %3 = load ptr, ptr %pWriteFunction.addr, align 8
  %4 = load ptr, ptr %pWriteFunctionContext.addr, align 8
  %5 = load ptr, ptr %fd.addr, align 8
  %6 = load i32, ptr %nWriteCount.addr, align 4
  %call = call noundef i32 @_ZN2EA4StdC12SprintfLocalL16WriteLeftPaddingIDsEEiPFiPKT_mPvNS0_18WriteFunctionStateEES6_RKNS1_10FormatDataERS5_i(ptr noundef %3, ptr noundef %4, ptr noundef nonnull align 4 dereferenceable(40) %5, ptr noundef nonnull align 8 dereferenceable(8) %pBufferData.addr, i32 noundef %6)
  store i32 %call, ptr %nFillCount, align 4
  %7 = load i32, ptr %nFillCount, align 4
  %cmp = icmp slt i32 %7, 0
  br i1 %cmp, label %if.then, label %if.end

if.then:                                          ; preds = %entry
  store i32 -1, ptr %retval, align 4
  br label %return

if.end:                                           ; preds = %entry
  %8 = load i32, ptr %nFillCount, align 4
  %9 = load i32, ptr %nWriteCountCurrent, align 4
  %add = add nsw i32 %9, %8
  store i32 %add, ptr %nWriteCountCurrent, align 4
  %10 = load ptr, ptr %pBufferData.addr, align 8
  %11 = load ptr, ptr %pBufferDataEnd, align 8
  %cmp1 = icmp ne ptr %10, %11
  br i1 %cmp1, label %land.lhs.true, label %if.end5

land.lhs.true:                                    ; preds = %if.end
  %12 = load ptr, ptr %pWriteFunction.addr, align 8
  %13 = load ptr, ptr %pBufferData.addr, align 8
  %14 = load ptr, ptr %pBufferDataEnd, align 8
  %15 = load ptr, ptr %pBufferData.addr, align 8
  %sub.ptr.lhs.cast = ptrtoint ptr %14 to i64
  %sub.ptr.rhs.cast = ptrtoint ptr %15 to i64
  %sub.ptr.sub = sub i64 %sub.ptr.lhs.cast, %sub.ptr.rhs.cast
  %sub.ptr.div = sdiv exact i64 %sub.ptr.sub, 2
  %16 = load ptr, ptr %pWriteFunctionContext.addr, align 8
  %call2 = call noundef i32 %12(ptr noundef %13, i64 noundef %sub.ptr.div, ptr noundef %16, i32 noundef 1)
  %cmp3 = icmp eq i32 %call2, -1
  br i1 %cmp3, label %if.then4, label %if.end5

if.then4:                                         ; preds = %land.lhs.true
  store i32 -1, ptr %retval, align 4
  br label %return

if.end5:                                          ; preds = %land.lhs.true, %if.end
  %17 = load ptr, ptr %pWriteFunction.addr, align 8
  %18 = load ptr, ptr %pWriteFunctionContext.addr, align 8
  %19 = load ptr, ptr %fd.addr, align 8
  %20 = load i32, ptr %nWriteCountCurrent, align 4
  %call6 = call noundef i32 @_ZN2EA4StdC12SprintfLocalL17WriteRightPaddingIDsEEiPFiPKT_mPvNS0_18WriteFunctionStateEES6_RKNS1_10FormatDataEi(ptr noundef %17, ptr noundef %18, ptr noundef nonnull align 4 dereferenceable(40) %19, i32 noundef %20)
  store i32 %call6, ptr %nFillCount, align 4
  %21 = load i32, ptr %nFillCount, align 4
  %cmp7 = icmp slt i32 %21, 0
  br i1 %cmp7, label %if.then8, label %if.end9

if.then8:                                         ; preds = %if.end5
  store i32 -1, ptr %retval, align 4
  br label %return

if.end9:                                          ; preds = %if.end5
  %22 = load i32, ptr %nFillCount, align 4
  %23 = load i32, ptr %nWriteCountCurrent, align 4
  %add10 = add nsw i32 %23, %22
  store i32 %add10, ptr %nWriteCountCurrent, align 4
  %24 = load i32, ptr %nWriteCountCurrent, align 4
  store i32 %24, ptr %retval, align 4
  br label %return

return:                                           ; preds = %if.end9, %if.then8, %if.then4, %if.then
  %25 = load i32, ptr %retval, align 4
  ret i32 %25
}