; Function Attrs: mustprogress uwtable
define internal fastcc noundef i32 @_ZN2EA4StdC12SprintfLocalL11WriteBufferIDsEEiPFiPKT_mPvNS0_18WriteFunctionStateEES6_RKNS1_10FormatDataES5_i(ptr noundef readonly captures(none) %pWriteFunction, ptr noalias noundef %pWriteFunctionContext, ptr noundef nonnull readonly align 4 captures(none) dereferenceable(40) %fd, ptr noundef %pBufferData, i32 noundef %nWriteCount) unnamed_addr #6 {
entry:
  %nSpace.i = alloca i16, align 2
  %nFill.i = alloca i16, align 2
  %idx.ext = sext i32 %nWriteCount to i64
  %add.ptr = getelementptr inbounds i16, ptr %pBufferData, i64 %idx.ext
  call void @llvm.lifetime.start.p0(i64 2, ptr nonnull %nFill.i)
  %0 = load i32, ptr %fd, align 4, !noalias !116
  %cmp.i = icmp eq i32 %0, 0
  br i1 %cmp.i, label %_ZN2EA4StdC12SprintfLocalL16WriteLeftPaddingIDsEEiPFiPKT_mPvNS0_18WriteFunctionStateEES6_RKNS1_10FormatDataERS5_i.exit.thread31, label %lor.lhs.false.i

lor.lhs.false.i:                                  ; preds = %entry
  %mnWidth.i = getelementptr inbounds nuw i8, ptr %fd, i64 12
  %1 = load i32, ptr %mnWidth.i, align 4, !noalias !116
  %cmp1.not.i = icmp sgt i32 %1, %nWriteCount
  br i1 %cmp1.not.i, label %if.end.i, label %_ZN2EA4StdC12SprintfLocalL16WriteLeftPaddingIDsEEiPFiPKT_mPvNS0_18WriteFunctionStateEES6_RKNS1_10FormatDataERS5_i.exit.thread31

if.end.i:                                         ; preds = %lor.lhs.false.i
  %cmp3.i = icmp eq i32 %0, 2
  br i1 %cmp3.i, label %if.then4.i, label %if.else.i

if.then4.i:                                       ; preds = %if.end.i
  store i16 48, ptr %nFill.i, align 2, !noalias !116
  %tobool.not.i = icmp eq ptr %pBufferData, null
  br i1 %tobool.not.i, label %if.end17.i, label %land.lhs.true.i

land.lhs.true.i:                                  ; preds = %if.then4.i
  %2 = load i16, ptr %pBufferData, align 2, !noalias !116
  switch i16 %2, label %if.end17.i [
    i16 43, label %if.then12.i
    i16 45, label %if.then12.i
    i16 32, label %if.then12.i
  ]

if.then12.i:                                      ; preds = %land.lhs.true.i, %land.lhs.true.i, %land.lhs.true.i
  %call.i = tail call noundef i32 %pWriteFunction(ptr noundef nonnull %pBufferData, i64 noundef 1, ptr noundef %pWriteFunctionContext, i32 noundef 1)
  %cmp13.i = icmp eq i32 %call.i, -1
  br i1 %cmp13.i, label %_ZN2EA4StdC12SprintfLocalL16WriteLeftPaddingIDsEEiPFiPKT_mPvNS0_18WriteFunctionStateEES6_RKNS1_10FormatDataERS5_i.exit.thread, label %if.end15.i

if.end15.i:                                       ; preds = %if.then12.i
  %dec.i = add nsw i32 %nWriteCount, -1
  %incdec.ptr.i = getelementptr inbounds nuw i8, ptr %pBufferData, i64 2
  %.pre.i = load i32, ptr %mnWidth.i, align 4, !noalias !116
  br label %if.end17.i

if.else.i:                                        ; preds = %if.end.i
  store i16 32, ptr %nFill.i, align 2, !noalias !116
  br label %if.end17.i

if.end17.i:                                       ; preds = %if.else.i, %if.end15.i, %land.lhs.true.i, %if.then4.i
  %pBufferData.addr.0 = phi ptr [ null, %if.then4.i ], [ %pBufferData, %land.lhs.true.i ], [ %incdec.ptr.i, %if.end15.i ], [ %pBufferData, %if.else.i ]
  %3 = phi i32 [ %1, %if.then4.i ], [ %1, %land.lhs.true.i ], [ %.pre.i, %if.end15.i ], [ %1, %if.else.i ]
  %nWriteCount.addr.0.i = phi i32 [ %nWriteCount, %if.then4.i ], [ %nWriteCount, %land.lhs.true.i ], [ %dec.i, %if.end15.i ], [ %nWriteCount, %if.else.i ]
  %sub.i = sub nsw i32 %3, %nWriteCount.addr.0.i
  %cmp1916.i = icmp sgt i32 %sub.i, 0
  br i1 %cmp1916.i, label %for.body.i, label %_ZN2EA4StdC12SprintfLocalL16WriteLeftPaddingIDsEEiPFiPKT_mPvNS0_18WriteFunctionStateEES6_RKNS1_10FormatDataERS5_i.exit

for.cond.i:                                       ; preds = %for.body.i
  %inc.i = add nuw nsw i32 %i.017.i, 1
  %exitcond.not.i = icmp eq i32 %inc.i, %sub.i
  br i1 %exitcond.not.i, label %_ZN2EA4StdC12SprintfLocalL16WriteLeftPaddingIDsEEiPFiPKT_mPvNS0_18WriteFunctionStateEES6_RKNS1_10FormatDataERS5_i.exit, label %for.body.i, !llvm.loop !119

for.body.i:                                       ; preds = %if.end17.i, %for.cond.i
  %i.017.i = phi i32 [ %inc.i, %for.cond.i ], [ 0, %if.end17.i ]
  %call20.i = call noundef i32 %pWriteFunction(ptr noundef nonnull %nFill.i, i64 noundef 1, ptr noundef %pWriteFunctionContext, i32 noundef 1)
  %cmp21.i = icmp eq i32 %call20.i, -1
  br i1 %cmp21.i, label %_ZN2EA4StdC12SprintfLocalL16WriteLeftPaddingIDsEEiPFiPKT_mPvNS0_18WriteFunctionStateEES6_RKNS1_10FormatDataERS5_i.exit.thread, label %for.cond.i

_ZN2EA4StdC12SprintfLocalL16WriteLeftPaddingIDsEEiPFiPKT_mPvNS0_18WriteFunctionStateEES6_RKNS1_10FormatDataERS5_i.exit.thread: ; preds = %for.body.i, %if.then12.i
  call void @llvm.lifetime.end.p0(i64 2, ptr nonnull %nFill.i)
  br label %return

_ZN2EA4StdC12SprintfLocalL16WriteLeftPaddingIDsEEiPFiPKT_mPvNS0_18WriteFunctionStateEES6_RKNS1_10FormatDataERS5_i.exit.thread31: ; preds = %lor.lhs.false.i, %entry
  call void @llvm.lifetime.end.p0(i64 2, ptr nonnull %nFill.i)
  br label %if.end

_ZN2EA4StdC12SprintfLocalL16WriteLeftPaddingIDsEEiPFiPKT_mPvNS0_18WriteFunctionStateEES6_RKNS1_10FormatDataERS5_i.exit: ; preds = %for.cond.i, %if.end17.i
  call void @llvm.lifetime.end.p0(i64 2, ptr nonnull %nFill.i)
  %cmp = icmp slt i32 %sub.i, 0
  br i1 %cmp, label %return, label %if.end

if.end:                                           ; preds = %_ZN2EA4StdC12SprintfLocalL16WriteLeftPaddingIDsEEiPFiPKT_mPvNS0_18WriteFunctionStateEES6_RKNS1_10FormatDataERS5_i.exit.thread31, %_ZN2EA4StdC12SprintfLocalL16WriteLeftPaddingIDsEEiPFiPKT_mPvNS0_18WriteFunctionStateEES6_RKNS1_10FormatDataERS5_i.exit
  %retval.0.i36 = phi i32 [ 0, %_ZN2EA4StdC12SprintfLocalL16WriteLeftPaddingIDsEEiPFiPKT_mPvNS0_18WriteFunctionStateEES6_RKNS1_10FormatDataERS5_i.exit.thread31 ], [ %sub.i, %_ZN2EA4StdC12SprintfLocalL16WriteLeftPaddingIDsEEiPFiPKT_mPvNS0_18WriteFunctionStateEES6_RKNS1_10FormatDataERS5_i.exit ]
  %pBufferData.addr.135 = phi ptr [ %pBufferData, %_ZN2EA4StdC12SprintfLocalL16WriteLeftPaddingIDsEEiPFiPKT_mPvNS0_18WriteFunctionStateEES6_RKNS1_10FormatDataERS5_i.exit.thread31 ], [ %pBufferData.addr.0, %_ZN2EA4StdC12SprintfLocalL16WriteLeftPaddingIDsEEiPFiPKT_mPvNS0_18WriteFunctionStateEES6_RKNS1_10FormatDataERS5_i.exit ]
  %add = add nsw i32 %retval.0.i36, %nWriteCount
  %cmp1.not = icmp eq ptr %pBufferData.addr.135, %add.ptr
  br i1 %cmp1.not, label %if.end5, label %land.lhs.true

land.lhs.true:                                    ; preds = %if.end
  %sub.ptr.lhs.cast = ptrtoint ptr %add.ptr to i64
  %sub.ptr.rhs.cast = ptrtoint ptr %pBufferData.addr.135 to i64
  %sub.ptr.sub = sub i64 %sub.ptr.lhs.cast, %sub.ptr.rhs.cast
  %sub.ptr.div = ashr exact i64 %sub.ptr.sub, 1
  %call2 = call noundef i32 %pWriteFunction(ptr noundef %pBufferData.addr.135, i64 noundef %sub.ptr.div, ptr noundef %pWriteFunctionContext, i32 noundef 1)
  %cmp3 = icmp eq i32 %call2, -1
  br i1 %cmp3, label %return, label %if.end5

if.end5:                                          ; preds = %land.lhs.true, %if.end
  %fd.val = load i32, ptr %fd, align 4
  %4 = getelementptr inbounds nuw i8, ptr %fd, i64 12
  %fd.val15 = load i32, ptr %4, align 4
  call void @llvm.lifetime.start.p0(i64 2, ptr nonnull %nSpace.i)
  %cmp.not.i = icmp eq i32 %fd.val, 0
  %cmp1.not.i16 = icmp sgt i32 %fd.val15, %add
  %or.cond.i = select i1 %cmp.not.i, i1 %cmp1.not.i16, i1 false
  br i1 %or.cond.i, label %if.end.i18, label %_ZN2EA4StdC12SprintfLocalL17WriteRightPaddingIDsEEiPFiPKT_mPvNS0_18WriteFunctionStateEES6_RKNS1_10FormatDataEi.exit.thread41

_ZN2EA4StdC12SprintfLocalL17WriteRightPaddingIDsEEiPFiPKT_mPvNS0_18WriteFunctionStateEES6_RKNS1_10FormatDataEi.exit.thread41: ; preds = %if.end5
  call void @llvm.lifetime.end.p0(i64 2, ptr nonnull %nSpace.i)
  br label %return

if.end.i18:                                       ; preds = %if.end5
  store i16 32, ptr %nSpace.i, align 2, !noalias !120
  %sub.i19 = sub nsw i32 %fd.val15, %add
  %sub.i19.fr = freeze i32 %sub.i19
  %cmp31.i = icmp sgt i32 %sub.i19.fr, 0
  br i1 %cmp31.i, label %for.body.i20, label %_ZN2EA4StdC12SprintfLocalL17WriteRightPaddingIDsEEiPFiPKT_mPvNS0_18WriteFunctionStateEES6_RKNS1_10FormatDataEi.exit

for.cond.i22:                                     ; preds = %for.body.i20
  %inc.i23 = add nuw nsw i32 %i.02.i, 1
  %exitcond.not.i24 = icmp eq i32 %inc.i23, %sub.i19.fr
  br i1 %exitcond.not.i24, label %_ZN2EA4StdC12SprintfLocalL17WriteRightPaddingIDsEEiPFiPKT_mPvNS0_18WriteFunctionStateEES6_RKNS1_10FormatDataEi.exit, label %for.body.i20, !llvm.loop !123

for.body.i20:                                     ; preds = %if.end.i18, %for.cond.i22
  %i.02.i = phi i32 [ %inc.i23, %for.cond.i22 ], [ 0, %if.end.i18 ]
  %call.i21 = call noundef i32 %pWriteFunction(ptr noundef nonnull %nSpace.i, i64 noundef 1, ptr noundef %pWriteFunctionContext, i32 noundef 1)
  %cmp4.i = icmp eq i32 %call.i21, -1
  br i1 %cmp4.i, label %_ZN2EA4StdC12SprintfLocalL17WriteRightPaddingIDsEEiPFiPKT_mPvNS0_18WriteFunctionStateEES6_RKNS1_10FormatDataEi.exit.thread, label %for.cond.i22

_ZN2EA4StdC12SprintfLocalL17WriteRightPaddingIDsEEiPFiPKT_mPvNS0_18WriteFunctionStateEES6_RKNS1_10FormatDataEi.exit.thread: ; preds = %for.body.i20
  call void @llvm.lifetime.end.p0(i64 2, ptr nonnull %nSpace.i)
  br label %5

_ZN2EA4StdC12SprintfLocalL17WriteRightPaddingIDsEEiPFiPKT_mPvNS0_18WriteFunctionStateEES6_RKNS1_10FormatDataEi.exit: ; preds = %for.cond.i22, %if.end.i18
  call void @llvm.lifetime.end.p0(i64 2, ptr nonnull %nSpace.i)
  %cmp7 = icmp slt i32 %sub.i19.fr, 0
  br i1 %cmp7, label %5, label %return

5:                                                ; preds = %_ZN2EA4StdC12SprintfLocalL17WriteRightPaddingIDsEEiPFiPKT_mPvNS0_18WriteFunctionStateEES6_RKNS1_10FormatDataEi.exit.thread, %_ZN2EA4StdC12SprintfLocalL17WriteRightPaddingIDsEEiPFiPKT_mPvNS0_18WriteFunctionStateEES6_RKNS1_10FormatDataEi.exit
  br label %return

return:                                           ; preds = %5, %_ZN2EA4StdC12SprintfLocalL17WriteRightPaddingIDsEEiPFiPKT_mPvNS0_18WriteFunctionStateEES6_RKNS1_10FormatDataEi.exit, %_ZN2EA4StdC12SprintfLocalL17WriteRightPaddingIDsEEiPFiPKT_mPvNS0_18WriteFunctionStateEES6_RKNS1_10FormatDataEi.exit.thread41, %_ZN2EA4StdC12SprintfLocalL16WriteLeftPaddingIDsEEiPFiPKT_mPvNS0_18WriteFunctionStateEES6_RKNS1_10FormatDataERS5_i.exit.thread, %land.lhs.true, %_ZN2EA4StdC12SprintfLocalL16WriteLeftPaddingIDsEEiPFiPKT_mPvNS0_18WriteFunctionStateEES6_RKNS1_10FormatDataERS5_i.exit
  %retval.0 = phi i32 [ -1, %_ZN2EA4StdC12SprintfLocalL16WriteLeftPaddingIDsEEiPFiPKT_mPvNS0_18WriteFunctionStateEES6_RKNS1_10FormatDataERS5_i.exit ], [ -1, %land.lhs.true ], [ -1, %_ZN2EA4StdC12SprintfLocalL16WriteLeftPaddingIDsEEiPFiPKT_mPvNS0_18WriteFunctionStateEES6_RKNS1_10FormatDataERS5_i.exit.thread ], [ -1, %5 ], [ %fd.val15, %_ZN2EA4StdC12SprintfLocalL17WriteRightPaddingIDsEEiPFiPKT_mPvNS0_18WriteFunctionStateEES6_RKNS1_10FormatDataEi.exit ], [ %add, %_ZN2EA4StdC12SprintfLocalL17WriteRightPaddingIDsEEiPFiPKT_mPvNS0_18WriteFunctionStateEES6_RKNS1_10FormatDataEi.exit.thread41 ]
  ret i32 %retval.0
}